; Function Attrs: inlinehint mustprogress uwtable
define internal fastcc void @_ZN2cv4rgbdL10checkImageERKNS_3MatE(ptr noundef nonnull align 8 dereferenceable(96) %0) unnamed_addr #9 personality ptr @__gxx_personality_v0 {
  %2 = alloca %"class.std::__cxx11::basic_string", align 8
  %3 = alloca %"class.std::allocator.12", align 1
  %4 = alloca %"class.std::__cxx11::basic_string", align 8
  %5 = alloca %"class.std::allocator.12", align 1
  %6 = tail call noundef zeroext i1 @_ZNK2cv3Mat5emptyEv(ptr noundef nonnull align 8 dereferenceable(96) %0)
  br i1 %6, label %7, label %20

7:                                                ; preds = %1
  call void @llvm.lifetime.start.p0(i64 32, ptr nonnull %2) #31
  call void @llvm.lifetime.start.p0(i64 1, ptr nonnull %3) #31
  invoke void @_ZNSt7__cxx1112basic_stringIcSt11char_traitsIcESaIcEEC2EPKcRKS3_(ptr noundef nonnull align 8 dereferenceable(32) %2, ptr noundef nonnull @.str.17, ptr noundef nonnull align 1 dereferenceable(1) %3)
          to label %8 unwind label %10

8:                                                ; preds = %7
  invoke void @_ZN2cv5errorEiRKNSt7__cxx1112basic_stringIcSt11char_traitsIcESaIcEEEPKcS9_i(i32 noundef -201, ptr noundef nonnull align 8 dereferenceable(32) %2, ptr noundef nonnull @__func__._ZN2cv4rgbdL10checkImageERKNS_3MatE, ptr noundef nonnull @.str.2, i32 noundef 77) #32
          to label %9 unwind label %12

9:                                                ; preds = %8
  unreachable

10:                                               ; preds = %7
  %11 = landingpad { ptr, i32 }
          cleanup
  br label %_ZNSt7__cxx1112basic_stringIcSt11char_traitsIcESaIcEED2Ev.exit

12:                                               ; preds = %8
  %13 = landingpad { ptr, i32 }
          cleanup
  %14 = load ptr, ptr %2, align 8, !tbaa !69
  %15 = getelementptr inbounds nuw i8, ptr %2, i64 16
  %16 = icmp eq ptr %14, %15
  br i1 %16, label %_ZNKSt7__cxx1112basic_stringIcSt11char_traitsIcESaIcEE11_M_is_localEv.exit.thread.i.i, label %_ZNKSt7__cxx1112basic_stringIcSt11char_traitsIcESaIcEE11_M_is_localEv.exit.i.i

_ZNKSt7__cxx1112basic_stringIcSt11char_traitsIcESaIcEE11_M_is_localEv.exit.thread.i.i: ; preds = %12
  %17 = getelementptr inbounds nuw i8, ptr %2, i64 8
  %18 = load i64, ptr %17, align 8, !tbaa !73
  %19 = icmp ult i64 %18, 16
  call void @llvm.assume(i1 %19)
  br label %_ZNSt7__cxx1112basic_stringIcSt11char_traitsIcESaIcEED2Ev.exit

_ZNKSt7__cxx1112basic_stringIcSt11char_traitsIcESaIcEE11_M_is_localEv.exit.i.i: ; preds = %12
  call void @_ZdlPv(ptr noundef %14) #30
  br label %_ZNSt7__cxx1112basic_stringIcSt11char_traitsIcESaIcEED2Ev.exit

_ZNSt7__cxx1112basic_stringIcSt11char_traitsIcESaIcEED2Ev.exit: ; preds = %_ZNKSt7__cxx1112basic_stringIcSt11char_traitsIcESaIcEE11_M_is_localEv.exit.i.i, %_ZNKSt7__cxx1112basic_stringIcSt11char_traitsIcESaIcEE11_M_is_localEv.exit.thread.i.i, %10
  %.pn7 = phi { ptr, i32 } [ %11, %10 ], [ %13, %_ZNKSt7__cxx1112basic_stringIcSt11char_traitsIcESaIcEE11_M_is_localEv.exit.thread.i.i ], [ %13, %_ZNKSt7__cxx1112basic_stringIcSt11char_traitsIcESaIcEE11_M_is_localEv.exit.i.i ]
  call void @llvm.lifetime.end.p0(i64 1, ptr nonnull %3) #31
  call void @llvm.lifetime.end.p0(i64 32, ptr nonnull %2) #31
  br label %37

20:                                               ; preds = %1
  %21 = load i32, ptr %0, align 8, !tbaa !112
  %22 = and i32 %21, 4095
  %.not = icmp eq i32 %22, 0
  br i1 %.not, label %36, label %23

23:                                               ; preds = %20
  call void @llvm.lifetime.start.p0(i64 32, ptr nonnull %4) #31
  call void @llvm.lifetime.start.p0(i64 1, ptr nonnull %5) #31
  invoke void @_ZNSt7__cxx1112basic_stringIcSt11char_traitsIcESaIcEEC2EPKcRKS3_(ptr noundef nonnull align 8 dereferenceable(32) %4, ptr noundef nonnull @.str.18, ptr noundef nonnull align 1 dereferenceable(1) %5)
          to label %24 unwind label %26

24:                                               ; preds = %23
  invoke void @_ZN2cv5errorEiRKNSt7__cxx1112basic_stringIcSt11char_traitsIcESaIcEEEPKcS9_i(i32 noundef -201, ptr noundef nonnull align 8 dereferenceable(32) %4, ptr noundef nonnull @__func__._ZN2cv4rgbdL10checkImageERKNS_3MatE, ptr noundef nonnull @.str.2, i32 noundef 79) #32
          to label %25 unwind label %28

25:                                               ; preds = %24
  unreachable

26:                                               ; preds = %23
  %27 = landingpad { ptr, i32 }
          cleanup
  br label %_ZNSt7__cxx1112basic_stringIcSt11char_traitsIcESaIcEED2Ev.exit12

28:                                               ; preds = %24
  %29 = landingpad { ptr, i32 }
          cleanup
  %30 = load ptr, ptr %4, align 8, !tbaa !69
  %31 = getelementptr inbounds nuw i8, ptr %4, i64 16
  %32 = icmp eq ptr %30, %31
  br i1 %32, label %_ZNKSt7__cxx1112basic_stringIcSt11char_traitsIcESaIcEE11_M_is_localEv.exit.thread.i.i11, label %_ZNKSt7__cxx1112basic_stringIcSt11char_traitsIcESaIcEE11_M_is_localEv.exit.i.i10

_ZNKSt7__cxx1112basic_stringIcSt11char_traitsIcESaIcEE11_M_is_localEv.exit.thread.i.i11: ; preds = %28
  %33 = getelementptr inbounds nuw i8, ptr %4, i64 8
  %34 = load i64, ptr %33, align 8, !tbaa !73
  %35 = icmp ult i64 %34, 16
  call void @llvm.assume(i1 %35)
  br label %_ZNSt7__cxx1112basic_stringIcSt11char_traitsIcESaIcEED2Ev.exit12

_ZNKSt7__cxx1112basic_stringIcSt11char_traitsIcESaIcEE11_M_is_localEv.exit.i.i10: ; preds = %28
  call void @_ZdlPv(ptr noundef %30) #30
  br label %_ZNSt7__cxx1112basic_stringIcSt11char_traitsIcESaIcEED2Ev.exit12

_ZNSt7__cxx1112basic_stringIcSt11char_traitsIcESaIcEED2Ev.exit12: ; preds = %_ZNKSt7__cxx1112basic_stringIcSt11char_traitsIcESaIcEE11_M_is_localEv.exit.i.i10, %_ZNKSt7__cxx1112basic_stringIcSt11char_traitsIcESaIcEE11_M_is_localEv.exit.thread.i.i11, %26
  %.pn = phi { ptr, i32 } [ %27, %26 ], [ %29, %_ZNKSt7__cxx1112basic_stringIcSt11char_traitsIcESaIcEE11_M_is_localEv.exit.thread.i.i11 ], [ %29, %_ZNKSt7__cxx1112basic_stringIcSt11char_traitsIcESaIcEE11_M_is_localEv.exit.i.i10 ]
  call void @llvm.lifetime.end.p0(i64 1, ptr nonnull %5) #31
  call void @llvm.lifetime.end.p0(i64 32, ptr nonnull %4) #31
  br label %37

36:                                               ; preds = %20
  ret void

37:                                               ; preds = %_ZNSt7__cxx1112basic_stringIcSt11char_traitsIcESaIcEED2Ev.exit12, %_ZNSt7__cxx1112basic_stringIcSt11char_traitsIcESaIcEED2Ev.exit
  %.pn7.pn = phi { ptr, i32 } [ %.pn7, %_ZNSt7__cxx1112basic_stringIcSt11char_traitsIcESaIcEED2Ev.exit ], [ %.pn, %_ZNSt7__cxx1112basic_stringIcSt11char_traitsIcESaIcEED2Ev.exit12 ]
  resume { ptr, i32 } %.pn7.pn
}